target datalayout = "e-m:e-p270:32:32-p271:32:32-p272:64:64-i64:64-i128:128-f80:128-n8:16:32:64-S128"
target triple = "x86_64-pc-linux-gnu"

; Function Attrs: inlinehint mustprogress nounwind uwtable
define linkonce_odr noundef nonnull align 8 dereferenceable(8) ptr @_ZSt3minIdERKT_S2_S2_(ptr noundef nonnull align 8 dereferenceable(8) %0, ptr noundef nonnull align 8 dereferenceable(8) %1) #6 comdat {
  %3 = alloca ptr, align 8
  %4 = alloca ptr, align 8
  %5 = alloca ptr, align 8
  store ptr %0, ptr %4, align 8, !tbaa !18
  store ptr %1, ptr %5, align 8, !tbaa !18
  %6 = load ptr, ptr %5, align 8, !tbaa !18
  %7 = load double, ptr %6, align 8, !tbaa !16
  %8 = load ptr, ptr %4, align 8, !tbaa !18
  %9 = load double, ptr %8, align 8, !tbaa !16
  %10 = fcmp olt double %7, %9
  br i1 %10, label %11, label %13

11:                                               ; preds = %2
  %12 = load ptr, ptr %5, align 8, !tbaa !18
  store ptr %12, ptr %3, align 8
  br label %15

13:                                               ; preds = %2
  %14 = load ptr, ptr %4, align 8, !tbaa !18
  store ptr %14, ptr %3, align 8
  br label %15

15:                                               ; preds = %13, %11
  %16 = load ptr, ptr %3, align 8
  ret ptr %16
}

; Function Attrs: inlinehint mustprogress nounwind uwtable
define linkonce_odr noundef nonnull align 8 dereferenceable(8) ptr @_ZSt3maxIdERKT_S2_S2_(ptr noundef nonnull align 8 dereferenceable(8) %0, ptr noundef nonnull align 8 dereferenceable(8) %1) #6 comdat {
  %3 = alloca ptr, align 8
  %4 = alloca ptr, align 8
  %5 = alloca ptr, align 8
  store ptr %0, ptr %4, align 8, !tbaa !18
  store ptr %1, ptr %5, align 8, !tbaa !18
  %6 = load ptr, ptr %4, align 8, !tbaa !18
  %7 = load double, ptr %6, align 8, !tbaa !16
  %8 = load ptr, ptr %5, align 8, !tbaa !18
  %9 = load double, ptr %8, align 8, !tbaa !16
  %10 = fcmp olt double %7, %9
  br i1 %10, label %11, label %13

11:                                               ; preds = %2
  %12 = load ptr, ptr %5, align 8, !tbaa !18
  store ptr %12, ptr %3, align 8
  br label %15

13:                                               ; preds = %2
  %14 = load ptr, ptr %4, align 8, !tbaa !18
  store ptr %14, ptr %3, align 8
  br label %15

15:                                               ; preds = %13, %11
  %16 = load ptr, ptr %3, align 8
  ret ptr %16
}

; Function Attrs: mustprogress nounwind uwtable
define internal noundef double @_ZL10safe_expm1d(double noundef %0) #0 {
  %2 = alloca double, align 8
  %3 = alloca double, align 8
  %4 = alloca double, align 8
  %5 = alloca double, align 8
  %6 = alloca i32, align 4
  store double %0, ptr %3, align 8, !tbaa !16
  call void @llvm.lifetime.start.p0(i64 8, ptr %4) #14
  store double 2.000000e+02, ptr %4, align 8, !tbaa !16
  call void @llvm.lifetime.start.p0(i64 8, ptr %5) #14
  %7 = load double, ptr %4, align 8, !tbaa !16
  %8 = fneg double %7
  store double %8, ptr %5, align 8, !tbaa !16
  %9 = load double, ptr %3, align 8, !tbaa !16
  %10 = load double, ptr %5, align 8, !tbaa !16
  %11 = fcmp ole double %9, %10
  br i1 %11, label %12, label %13

12:                                               ; preds = %1
  store double -1.000000e+00, ptr %2, align 8
  store i32 1, ptr %6, align 4
  br label %23

13:                                               ; preds = %1
  %14 = load double, ptr %3, align 8, !tbaa !16
  %15 = load double, ptr %4, align 8, !tbaa !16
  %16 = fcmp oge double %14, %15
  br i1 %16, label %17, label %20

17:                                               ; preds = %13
  %18 = load double, ptr %4, align 8, !tbaa !16
  %19 = call double @exp(double noundef %18) #14, !tbaa !4
  store double %19, ptr %2, align 8
  store i32 1, ptr %6, align 4
  br label %23

20:                                               ; preds = %13
  %21 = load double, ptr %3, align 8, !tbaa !16
  %22 = call double @expm1(double noundef %21) #14, !tbaa !4
  store double %22, ptr %2, align 8
  store i32 1, ptr %6, align 4
  br label %23

23:                                               ; preds = %20, %17, %12
  call void @llvm.lifetime.end.p0(i64 8, ptr %5) #14
  call void @llvm.lifetime.end.p0(i64 8, ptr %4) #14
  %24 = load double, ptr %2, align 8
  ret double %24
}

; Function Attrs: mustprogress uwtable
define internal noundef double @_ZL17lmc_errest_3_parmdPKd(double noundef %0, ptr noundef %1) #3 {
  %3 = alloca double, align 8
  %4 = alloca double, align 8
  %5 = alloca ptr, align 8
  %6 = alloca double, align 8
  %7 = alloca double, align 8
  %8 = alloca double, align 8
  %9 = alloca double, align 8
  %10 = alloca double, align 8
  %11 = alloca double, align 8
  %12 = alloca double, align 8
  %13 = alloca double, align 8
  %14 = alloca double, align 8
  %15 = alloca i32, align 4
  store double %0, ptr %4, align 8, !tbaa !16
  store ptr %1, ptr %5, align 8, !tbaa !18
  call void @llvm.lifetime.start.p0(i64 8, ptr %6) #14
  call void @llvm.lifetime.start.p0(i64 8, ptr %7) #14
  call void @llvm.lifetime.start.p0(i64 8, ptr %8) #14
  call void @llvm.lifetime.start.p0(i64 8, ptr %9) #14
  call void @llvm.lifetime.start.p0(i64 8, ptr %10) #14
  %16 = load ptr, ptr %5, align 8, !tbaa !18
  %17 = getelementptr inbounds double, ptr %16, i64 0
  %18 = load double, ptr %17, align 8, !tbaa !16
  %19 = call double @llvm.fabs.f64(double %18)
  store double %19, ptr %10, align 8, !tbaa !16
  call void @llvm.lifetime.start.p0(i64 8, ptr %11) #14
  call void @llvm.lifetime.start.p0(i64 8, ptr %12) #14
  %20 = load double, ptr %10, align 8, !tbaa !16
  %21 = load ptr, ptr %5, align 8, !tbaa !18
  %22 = getelementptr inbounds double, ptr %21, i64 2
  %23 = load double, ptr %22, align 8, !tbaa !16
  %24 = call double @llvm.fabs.f64(double %23)
  %25 = fadd double %20, %24
  store double %25, ptr %12, align 8, !tbaa !16
  %26 = load ptr, ptr %5, align 8, !tbaa !18
  %27 = getelementptr inbounds double, ptr %26, i64 0
  %28 = load double, ptr %27, align 8, !tbaa !16
  %29 = fcmp une double %28, 0.000000e+00
  br i1 %29, label %30, label %36

30:                                               ; preds = %2
  %31 = load double, ptr %4, align 8, !tbaa !16
  %32 = fneg double %31
  %33 = load double, ptr %10, align 8, !tbaa !16
  %34 = fdiv double %32, %33
  %35 = call noundef double @_ZL10safe_expm1d(double noundef %34)
  store double %35, ptr %6, align 8, !tbaa !16
  br label %37

36:                                               ; preds = %2
  store double 0.000000e+00, ptr %6, align 8, !tbaa !16
  br label %37

37:                                               ; preds = %36, %30
  %38 = load ptr, ptr %5, align 8, !tbaa !18
  %39 = getelementptr inbounds double, ptr %38, i64 2
  %40 = load double, ptr %39, align 8, !tbaa !16
  %41 = fcmp une double %40, 0.000000e+00
  br i1 %41, label %42, label %48

42:                                               ; preds = %37
  %43 = load double, ptr %4, align 8, !tbaa !16
  %44 = fneg double %43
  %45 = load double, ptr %12, align 8, !tbaa !16
  %46 = fdiv double %44, %45
  %47 = call noundef double @_ZL10safe_expm1d(double noundef %46)
  store double %47, ptr %7, align 8, !tbaa !16
  br label %49

48:                                               ; preds = %37
  store double 0.000000e+00, ptr %7, align 8, !tbaa !16
  br label %49

49:                                               ; preds = %48, %42
  %50 = load double, ptr %4, align 8, !tbaa !16
  %51 = fcmp ogt double %50, 0.000000e+00
  br i1 %51, label %52, label %83

52:                                               ; preds = %49
  %53 = load double, ptr %10, align 8, !tbaa !16
  %54 = fmul double 2.000000e+00, %53
  %55 = load double, ptr %6, align 8, !tbaa !16
  %56 = load double, ptr %10, align 8, !tbaa !16
  %57 = fmul double %55, %56
  %58 = load double, ptr %4, align 8, !tbaa !16
  %59 = fdiv double %57, %58
  %60 = fadd double %59, 1.000000e+00
  %61 = fmul double %54, %60
  store double %61, ptr %8, align 8, !tbaa !16
  %62 = load double, ptr %12, align 8, !tbaa !16
  %63 = fmul double 2.000000e+00, %62
  %64 = load double, ptr %7, align 8, !tbaa !16
  %65 = load double, ptr %12, align 8, !tbaa !16
  %66 = fmul double %64, %65
  %67 = load double, ptr %4, align 8, !tbaa !16
  %68 = fdiv double %66, %67
  %69 = fadd double %68, 1.000000e+00
  %70 = fmul double %63, %69
  store double %70, ptr %9, align 8, !tbaa !16
  call void @llvm.lifetime.start.p0(i64 8, ptr %13) #14
  store double 1.000000e+00, ptr %13, align 8, !tbaa !16
  call void @llvm.lifetime.start.p0(i64 8, ptr %14) #14
  store double 0.000000e+00, ptr %14, align 8, !tbaa !16
  %71 = load ptr, ptr %5, align 8, !tbaa !18
  %72 = getelementptr inbounds double, ptr %71, i64 1
  %73 = call noundef nonnull align 8 dereferenceable(8) ptr @_ZSt3maxIdERKT_S2_S2_(ptr noundef nonnull align 8 dereferenceable(8) %14, ptr noundef nonnull align 8 dereferenceable(8) %72)
  %74 = call noundef nonnull align 8 dereferenceable(8) ptr @_ZSt3minIdERKT_S2_S2_(ptr noundef nonnull align 8 dereferenceable(8) %13, ptr noundef nonnull align 8 dereferenceable(8) %73)
  %75 = load double, ptr %74, align 8, !tbaa !16
  store double %75, ptr %11, align 8, !tbaa !16
  call void @llvm.lifetime.end.p0(i64 8, ptr %14) #14
  call void @llvm.lifetime.end.p0(i64 8, ptr %13) #14
  %76 = load double, ptr %11, align 8, !tbaa !16
  %77 = load double, ptr %8, align 8, !tbaa !16
  %78 = load double, ptr %11, align 8, !tbaa !16
  %79 = fsub double 1.000000e+00, %78
  %80 = load double, ptr %9, align 8, !tbaa !16
  %81 = fmul double %79, %80
  %82 = call double @llvm.fmuladd.f64(double %76, double %77, double %81)
  store double %82, ptr %3, align 8
  store i32 1, ptr %15, align 4
  br label %84

83:                                               ; preds = %49
  store double 0.000000e+00, ptr %3, align 8
  store i32 1, ptr %15, align 4
  br label %84

84:                                               ; preds = %83, %52
  call void @llvm.lifetime.end.p0(i64 8, ptr %12) #14
  call void @llvm.lifetime.end.p0(i64 8, ptr %11) #14
  call void @llvm.lifetime.end.p0(i64 8, ptr %10) #14
  call void @llvm.lifetime.end.p0(i64 8, ptr %9) #14
  call void @llvm.lifetime.end.p0(i64 8, ptr %8) #14
  call void @llvm.lifetime.end.p0(i64 8, ptr %7) #14
  call void @llvm.lifetime.end.p0(i64 8, ptr %6) #14
  %85 = load double, ptr %3, align 8
  ret double %85
}