; Function Attrs: mustprogress nofree nounwind willreturn memory(write, argmem: readwrite) uwtable
define internal noundef double @_ZL17lmc_errest_3_parmdPKd(double noundef %0, ptr noundef readonly captures(none) %1) #4 {
  %3 = load double, ptr %1, align 8, !tbaa !13
  %4 = tail call double @llvm.fabs.f64(double %3)
  %5 = getelementptr inbounds nuw i8, ptr %1, i64 16
  %6 = load double, ptr %5, align 8, !tbaa !13
  %7 = tail call double @llvm.fabs.f64(double %6)
  %8 = fadd double %4, %7
  %9 = fcmp une double %3, 0.000000e+00
  br i1 %9, label %10, label %_ZL10safe_expm1d.exit

10:                                               ; preds = %2
  %11 = fneg double %0
  %12 = fdiv double %11, %4
  %13 = fcmp ugt double %12, -2.000000e+02
  br i1 %13, label %14, label %_ZL10safe_expm1d.exit

14:                                               ; preds = %10
  %15 = fcmp ult double %12, 2.000000e+02
  br i1 %15, label %16, label %_ZL10safe_expm1d.exit

16:                                               ; preds = %14
  %17 = tail call double @expm1(double noundef %12) #18, !tbaa !4
  br label %_ZL10safe_expm1d.exit

_ZL10safe_expm1d.exit:                            ; preds = %16, %14, %10, %2
  %.024 = phi double [ 0.000000e+00, %2 ], [ %17, %16 ], [ -1.000000e+00, %10 ], [ 0x51F73F60EA79F5B9, %14 ]
  %18 = fcmp une double %6, 0.000000e+00
  br i1 %18, label %19, label %_ZL10safe_expm1d.exit28

19:                                               ; preds = %_ZL10safe_expm1d.exit
  %20 = fneg double %0
  %21 = fdiv double %20, %8
  %22 = fcmp ugt double %21, -2.000000e+02
  br i1 %22, label %23, label %_ZL10safe_expm1d.exit28

23:                                               ; preds = %19
  %24 = fcmp ult double %21, 2.000000e+02
  br i1 %24, label %25, label %_ZL10safe_expm1d.exit28

25:                                               ; preds = %23
  %26 = tail call double @expm1(double noundef %21) #18, !tbaa !4
  br label %_ZL10safe_expm1d.exit28

_ZL10safe_expm1d.exit28:                          ; preds = %25, %23, %19, %_ZL10safe_expm1d.exit
  %.025 = phi double [ 0.000000e+00, %_ZL10safe_expm1d.exit ], [ %26, %25 ], [ -1.000000e+00, %19 ], [ 0x51F73F60EA79F5B9, %23 ]
  %27 = fcmp ogt double %0, 0.000000e+00
  br i1 %27, label %28, label %47

28:                                               ; preds = %_ZL10safe_expm1d.exit28
  %29 = fmul double %4, 2.000000e+00
  %30 = fmul double %4, %.024
  %31 = fdiv double %30, %0
  %32 = fadd double %31, 1.000000e+00
  %33 = fmul double %29, %32
  %34 = fmul double %8, 2.000000e+00
  %35 = fmul double %8, %.025
  %36 = fdiv double %35, %0
  %37 = fadd double %36, 1.000000e+00
  %38 = fmul double %34, %37
  %39 = getelementptr inbounds nuw i8, ptr %1, i64 8
  %40 = load double, ptr %39, align 8, !tbaa !13
  %41 = fcmp ogt double %40, 0.000000e+00
  %42 = select i1 %41, double %40, double 0.000000e+00
  %43 = fcmp olt double %42, 1.000000e+00
  %.sroa.speculated = select i1 %43, double %42, double 1.000000e+00
  %44 = fsub double 1.000000e+00, %.sroa.speculated
  %45 = fmul double %38, %44
  %46 = tail call double @llvm.fmuladd.f64(double %.sroa.speculated, double %33, double %45)
  br label %47

47:                                               ; preds = %_ZL10safe_expm1d.exit28, %28
  %.0 = phi double [ %46, %28 ], [ 0.000000e+00, %_ZL10safe_expm1d.exit28 ]
  ret double %.0
}